target datalayout = "e-m:e-p270:32:32-p271:32:32-p272:64:64-i64:64-i128:128-f80:128-n8:16:32:64-S128"
target triple = "x86_64-pc-linux-gnu"

%"class.bParse::bFile" = type <{ ptr, [7 x i8], i8, ptr, i32, i32, %class.b3HashMap, i32, [4 x i8], ptr, ptr, %class.b3AlignedObjectArray.4, %class.b3AlignedObjectArray.4, %class.b3AlignedObjectArray.6, %class.b3HashMap.8, %class.b3HashMap, i32, [4 x i8] }>
%class.b3AlignedObjectArray.4 = type <{ [4 x i8], i32, i32, [4 x i8], ptr, i8, [7 x i8] }>
%class.b3AlignedObjectArray.6 = type <{ [4 x i8], i32, i32, [4 x i8], ptr, i8, [7 x i8] }>
%class.b3HashMap.8 = type { %class.b3AlignedObjectArray, %class.b3AlignedObjectArray, %class.b3AlignedObjectArray.6, %class.b3AlignedObjectArray.2 }
%class.b3AlignedObjectArray = type <{ [4 x i8], i32, i32, [4 x i8], ptr, i8, [7 x i8] }>
%class.b3AlignedObjectArray.2 = type <{ [4 x i8], i32, i32, [4 x i8], ptr, i8, [7 x i8] }>
%class.b3HashMap = type { %class.b3AlignedObjectArray, %class.b3AlignedObjectArray, %class.b3AlignedObjectArray.0, %class.b3AlignedObjectArray.2 }
%class.b3AlignedObjectArray.0 = type <{ [4 x i8], i32, i32, [4 x i8], ptr, i8, [7 x i8] }>
%"class.bParse::bChunkInd" = type { i32, i32, ptr, i32, i32 }
%class.b3HashPtr = type { %union.anon.22 }
%union.anon.22 = type { ptr }

; Function Attrs: mustprogress nounwind uwtable
define linkonce_odr dso_local noundef ptr @_ZNK9b3HashPtr10getPointerEv(ptr noundef nonnull align 8 dereferenceable(8) %0) #7 comdat align 2 {
  %2 = alloca ptr, align 8
  store ptr %0, ptr %2, align 8, !tbaa !111
  %3 = load ptr, ptr %2, align 8
  %4 = getelementptr inbounds nuw %class.b3HashPtr, ptr %3, i32 0, i32 0
  %5 = load ptr, ptr %4, align 8, !tbaa !11
  ret ptr %5
}

; Function Attrs: mustprogress uwtable
define linkonce_odr dso_local noundef zeroext i1 @_ZNK9b3HashPtr6equalsERKS_(ptr noundef nonnull align 8 dereferenceable(8) %0, ptr noundef nonnull align 8 dereferenceable(8) %1) #0 comdat align 2 {
  %3 = alloca ptr, align 8
  %4 = alloca ptr, align 8
  store ptr %0, ptr %3, align 8, !tbaa !111
  store ptr %1, ptr %4, align 8, !tbaa !111
  %5 = load ptr, ptr %3, align 8
  %6 = call noundef ptr @_ZNK9b3HashPtr10getPointerEv(ptr noundef nonnull align 8 dereferenceable(8) %5)
  %7 = load ptr, ptr %4, align 8, !tbaa !111
  %8 = call noundef ptr @_ZNK9b3HashPtr10getPointerEv(ptr noundef nonnull align 8 dereferenceable(8) %7)
  %9 = icmp eq ptr %6, %8
  ret i1 %9
}

; Function Attrs: inlinehint mustprogress nounwind uwtable
define linkonce_odr dso_local noundef nonnull align 8 dereferenceable(8) ptr @_ZNK20b3AlignedObjectArrayI9b3HashPtrEixEi(ptr noundef nonnull align 8 dereferenceable(25) %0, i32 noundef %1) #3 comdat align 2 {
  %3 = alloca ptr, align 8
  %4 = alloca i32, align 4
  store ptr %0, ptr %3, align 8, !tbaa !181
  store i32 %1, ptr %4, align 4, !tbaa !9
  %5 = load ptr, ptr %3, align 8
  %6 = getelementptr inbounds nuw %class.b3AlignedObjectArray.2, ptr %5, i32 0, i32 4
  %7 = load ptr, ptr %6, align 8, !tbaa !198
  %8 = load i32, ptr %4, align 4, !tbaa !9
  %9 = sext i32 %8 to i64
  %10 = getelementptr inbounds %class.b3HashPtr, ptr %7, i64 %9
  ret ptr %10
}

; Function Attrs: inlinehint mustprogress nounwind uwtable
define linkonce_odr dso_local noundef nonnull align 4 dereferenceable(4) ptr @_ZNK20b3AlignedObjectArrayIiEixEi(ptr noundef nonnull align 8 dereferenceable(25) %0, i32 noundef %1) #3 comdat align 2 {
  %3 = alloca ptr, align 8
  %4 = alloca i32, align 4
  store ptr %0, ptr %3, align 8, !tbaa !177
  store i32 %1, ptr %4, align 4, !tbaa !9
  %5 = load ptr, ptr %3, align 8
  %6 = getelementptr inbounds nuw %class.b3AlignedObjectArray, ptr %5, i32 0, i32 4
  %7 = load ptr, ptr %6, align 8, !tbaa !186
  %8 = load i32, ptr %4, align 4, !tbaa !9
  %9 = sext i32 %8 to i64
  %10 = getelementptr inbounds i32, ptr %7, i64 %9
  ret ptr %10
}

; Function Attrs: inlinehint mustprogress nounwind uwtable
define linkonce_odr dso_local noundef i32 @_ZNK20b3AlignedObjectArrayIiE4sizeEv(ptr noundef nonnull align 8 dereferenceable(25) %0) #3 comdat align 2 {
  %2 = alloca ptr, align 8
  store ptr %0, ptr %2, align 8, !tbaa !177
  %3 = load ptr, ptr %2, align 8
  %4 = getelementptr inbounds nuw %class.b3AlignedObjectArray, ptr %3, i32 0, i32 1
  %5 = load i32, ptr %4, align 4, !tbaa !187
  ret i32 %5
}

; Function Attrs: inlinehint mustprogress nounwind uwtable
define linkonce_odr dso_local noundef i32 @_ZNK20b3AlignedObjectArrayIPN6bParse13bStructHandleEE8capacityEv(ptr noundef nonnull align 8 dereferenceable(25) %0) #3 comdat align 2 {
  %2 = alloca ptr, align 8
  store ptr %0, ptr %2, align 8, !tbaa !179
  %3 = load ptr, ptr %2, align 8
  %4 = getelementptr inbounds nuw %class.b3AlignedObjectArray.0, ptr %3, i32 0, i32 2
  %5 = load i32, ptr %4, align 8, !tbaa !194
  ret i32 %5
}

; Function Attrs: inlinehint mustprogress nounwind uwtable
define linkonce_odr dso_local noundef i32 @_ZNK9b3HashPtr7getHashEv(ptr noundef nonnull align 8 dereferenceable(8) %0) #3 comdat align 2 {
  %2 = alloca ptr, align 8
  %3 = alloca i8, align 1
  %4 = alloca i32, align 4
  store ptr %0, ptr %2, align 8, !tbaa !111
  %5 = load ptr, ptr %2, align 8
  call void @llvm.lifetime.start.p0(i64 1, ptr %3) #16
  store i8 1, ptr %3, align 1, !tbaa !67
  call void @llvm.lifetime.start.p0(i64 4, ptr %4) #16
  %6 = getelementptr inbounds nuw %class.b3HashPtr, ptr %5, i32 0, i32 0
  %7 = getelementptr inbounds [2 x i32], ptr %6, i64 0, i64 0
  %8 = load i32, ptr %7, align 8, !tbaa !11
  %9 = getelementptr inbounds nuw %class.b3HashPtr, ptr %5, i32 0, i32 0
  %10 = getelementptr inbounds [2 x i32], ptr %9, i64 0, i64 1
  %11 = load i32, ptr %10, align 4, !tbaa !11
  %12 = add nsw i32 %8, %11
  store i32 %12, ptr %4, align 4, !tbaa !9
  %13 = load i32, ptr %4, align 4, !tbaa !9
  %14 = shl i32 %13, 15
  %15 = xor i32 %14, -1
  %16 = load i32, ptr %4, align 4, !tbaa !9
  %17 = add nsw i32 %16, %15
  store i32 %17, ptr %4, align 4, !tbaa !9
  %18 = load i32, ptr %4, align 4, !tbaa !9
  %19 = ashr i32 %18, 10
  %20 = load i32, ptr %4, align 4, !tbaa !9
  %21 = xor i32 %20, %19
  store i32 %21, ptr %4, align 4, !tbaa !9
  %22 = load i32, ptr %4, align 4, !tbaa !9
  %23 = shl i32 %22, 3
  %24 = load i32, ptr %4, align 4, !tbaa !9
  %25 = add nsw i32 %24, %23
  store i32 %25, ptr %4, align 4, !tbaa !9
  %26 = load i32, ptr %4, align 4, !tbaa !9
  %27 = ashr i32 %26, 6
  %28 = load i32, ptr %4, align 4, !tbaa !9
  %29 = xor i32 %28, %27
  store i32 %29, ptr %4, align 4, !tbaa !9
  %30 = load i32, ptr %4, align 4, !tbaa !9
  %31 = shl i32 %30, 11
  %32 = xor i32 %31, -1
  %33 = load i32, ptr %4, align 4, !tbaa !9
  %34 = add nsw i32 %33, %32
  store i32 %34, ptr %4, align 4, !tbaa !9
  %35 = load i32, ptr %4, align 4, !tbaa !9
  %36 = ashr i32 %35, 16
  %37 = load i32, ptr %4, align 4, !tbaa !9
  %38 = xor i32 %37, %36
  store i32 %38, ptr %4, align 4, !tbaa !9
  %39 = load i32, ptr %4, align 4, !tbaa !9
  call void @llvm.lifetime.end.p0(i64 4, ptr %4) #16
  call void @llvm.lifetime.end.p0(i64 1, ptr %3) #16
  ret i32 %39
}

; Function Attrs: inlinehint mustprogress nounwind uwtable
define linkonce_odr dso_local noundef nonnull align 8 dereferenceable(8) ptr @_ZN20b3AlignedObjectArrayIPN6bParse13bStructHandleEEixEi(ptr noundef nonnull align 8 dereferenceable(25) %0, i32 noundef %1) #3 comdat align 2 {
  %3 = alloca ptr, align 8
  %4 = alloca i32, align 4
  store ptr %0, ptr %3, align 8, !tbaa !179
  store i32 %1, ptr %4, align 4, !tbaa !9
  %5 = load ptr, ptr %3, align 8
  %6 = getelementptr inbounds nuw %class.b3AlignedObjectArray.0, ptr %5, i32 0, i32 4
  %7 = load ptr, ptr %6, align 8, !tbaa !192
  %8 = load i32, ptr %4, align 4, !tbaa !9
  %9 = sext i32 %8 to i64
  %10 = getelementptr inbounds ptr, ptr %7, i64 %9
  ret ptr %10
}

; Function Attrs: mustprogress uwtable
define linkonce_odr dso_local noundef i32 @_ZNK9b3HashMapI9b3HashPtrPN6bParse13bStructHandleEE9findIndexERKS0_(ptr noundef nonnull align 8 dereferenceable(128) %0, ptr noundef nonnull align 8 dereferenceable(8) %1) #0 comdat align 2 {
  %3 = alloca i32, align 4
  %4 = alloca ptr, align 8
  %5 = alloca ptr, align 8
  %6 = alloca i32, align 4
  %7 = alloca i32, align 4
  %8 = alloca i32, align 4
  store ptr %0, ptr %4, align 8, !tbaa !50
  store ptr %1, ptr %5, align 8, !tbaa !111
  %9 = load ptr, ptr %4, align 8
  call void @llvm.lifetime.start.p0(i64 4, ptr %6) #16
  %10 = load ptr, ptr %5, align 8, !tbaa !111
  %11 = call noundef i32 @_ZNK9b3HashPtr7getHashEv(ptr noundef nonnull align 8 dereferenceable(8) %10)
  %12 = getelementptr inbounds nuw %class.b3HashMap, ptr %9, i32 0, i32 2
  %13 = call noundef i32 @_ZNK20b3AlignedObjectArrayIPN6bParse13bStructHandleEE8capacityEv(ptr noundef nonnull align 8 dereferenceable(25) %12)
  %14 = sub nsw i32 %13, 1
  %15 = and i32 %11, %14
  store i32 %15, ptr %6, align 4, !tbaa !9
  %16 = load i32, ptr %6, align 4, !tbaa !9
  %17 = getelementptr inbounds nuw %class.b3HashMap, ptr %9, i32 0, i32 0
  %18 = call noundef i32 @_ZNK20b3AlignedObjectArrayIiE4sizeEv(ptr noundef nonnull align 8 dereferenceable(25) %17)
  %19 = icmp uge i32 %16, %18
  br i1 %19, label %20, label %21

20:                                               ; preds = %2
  store i32 -1, ptr %3, align 4
  store i32 1, ptr %7, align 4
  br label %46

21:                                               ; preds = %2
  call void @llvm.lifetime.start.p0(i64 4, ptr %8) #16
  %22 = getelementptr inbounds nuw %class.b3HashMap, ptr %9, i32 0, i32 0
  %23 = load i32, ptr %6, align 4, !tbaa !9
  %24 = call noundef nonnull align 4 dereferenceable(4) ptr @_ZNK20b3AlignedObjectArrayIiEixEi(ptr noundef nonnull align 8 dereferenceable(25) %22, i32 noundef %23)
  %25 = load i32, ptr %24, align 4, !tbaa !9
  store i32 %25, ptr %8, align 4, !tbaa !9
  br label %26

26:                                               ; preds = %39, %21
  %27 = load i32, ptr %8, align 4, !tbaa !9
  %28 = icmp ne i32 %27, -1
  br i1 %28, label %29, label %37

29:                                               ; preds = %26
  %30 = load ptr, ptr %5, align 8, !tbaa !111
  %31 = getelementptr inbounds nuw %class.b3HashMap, ptr %9, i32 0, i32 3
  %32 = load i32, ptr %8, align 4, !tbaa !9
  %33 = call noundef nonnull align 8 dereferenceable(8) ptr @_ZNK20b3AlignedObjectArrayI9b3HashPtrEixEi(ptr noundef nonnull align 8 dereferenceable(25) %31, i32 noundef %32)
  %34 = call noundef zeroext i1 @_ZNK9b3HashPtr6equalsERKS_(ptr noundef nonnull align 8 dereferenceable(8) %30, ptr noundef nonnull align 8 dereferenceable(8) %33)
  %35 = zext i1 %34 to i32
  %36 = icmp eq i32 %35, 0
  br label %37

37:                                               ; preds = %29, %26
  %38 = phi i1 [ false, %26 ], [ %36, %29 ]
  br i1 %38, label %39, label %44

39:                                               ; preds = %37
  %40 = getelementptr inbounds nuw %class.b3HashMap, ptr %9, i32 0, i32 1
  %41 = load i32, ptr %8, align 4, !tbaa !9
  %42 = call noundef nonnull align 4 dereferenceable(4) ptr @_ZNK20b3AlignedObjectArrayIiEixEi(ptr noundef nonnull align 8 dereferenceable(25) %40, i32 noundef %41)
  %43 = load i32, ptr %42, align 4, !tbaa !9
  store i32 %43, ptr %8, align 4, !tbaa !9
  br label %26, !llvm.loop !224

44:                                               ; preds = %37
  %45 = load i32, ptr %8, align 4, !tbaa !9
  store i32 %45, ptr %3, align 4
  store i32 1, ptr %7, align 4
  call void @llvm.lifetime.end.p0(i64 4, ptr %8) #16
  br label %46

46:                                               ; preds = %44, %20
  call void @llvm.lifetime.end.p0(i64 4, ptr %6) #16
  %47 = load i32, ptr %3, align 4
  ret i32 %47
}

; Function Attrs: mustprogress uwtable
define linkonce_odr dso_local noundef ptr @_ZN9b3HashMapI9b3HashPtrPN6bParse13bStructHandleEE4findERKS0_(ptr noundef nonnull align 8 dereferenceable(128) %0, ptr noundef nonnull align 8 dereferenceable(8) %1) #0 comdat align 2 {
  %3 = alloca ptr, align 8
  %4 = alloca ptr, align 8
  %5 = alloca ptr, align 8
  %6 = alloca i32, align 4
  %7 = alloca i32, align 4
  store ptr %0, ptr %4, align 8, !tbaa !50
  store ptr %1, ptr %5, align 8, !tbaa !111
  %8 = load ptr, ptr %4, align 8
  call void @llvm.lifetime.start.p0(i64 4, ptr %6) #16
  %9 = load ptr, ptr %5, align 8, !tbaa !111
  %10 = call noundef i32 @_ZNK9b3HashMapI9b3HashPtrPN6bParse13bStructHandleEE9findIndexERKS0_(ptr noundef nonnull align 8 dereferenceable(128) %8, ptr noundef nonnull align 8 dereferenceable(8) %9)
  store i32 %10, ptr %6, align 4, !tbaa !9
  %11 = load i32, ptr %6, align 4, !tbaa !9
  %12 = icmp eq i32 %11, -1
  br i1 %12, label %13, label %14

13:                                               ; preds = %2
  store ptr null, ptr %3, align 8
  store i32 1, ptr %7, align 4
  br label %18

14:                                               ; preds = %2
  %15 = getelementptr inbounds nuw %class.b3HashMap, ptr %8, i32 0, i32 2
  %16 = load i32, ptr %6, align 4, !tbaa !9
  %17 = call noundef nonnull align 8 dereferenceable(8) ptr @_ZN20b3AlignedObjectArrayIPN6bParse13bStructHandleEEixEi(ptr noundef nonnull align 8 dereferenceable(25) %15, i32 noundef %16)
  store ptr %17, ptr %3, align 8
  store i32 1, ptr %7, align 4
  br label %18

18:                                               ; preds = %14, %13
  call void @llvm.lifetime.end.p0(i64 4, ptr %6) #16
  %19 = load ptr, ptr %3, align 8
  ret ptr %19
}

; Function Attrs: mustprogress nounwind uwtable
define linkonce_odr dso_local void @_ZN9b3HashPtrC2EPKv(ptr noundef nonnull align 8 dereferenceable(8) %0, ptr noundef %1) unnamed_addr #7 comdat align 2 {
  %3 = alloca ptr, align 8
  %4 = alloca ptr, align 8
  store ptr %0, ptr %3, align 8, !tbaa !111
  store ptr %1, ptr %4, align 8, !tbaa !113
  %5 = load ptr, ptr %3, align 8
  %6 = getelementptr inbounds nuw %class.b3HashPtr, ptr %5, i32 0, i32 0
  %7 = load ptr, ptr %4, align 8, !tbaa !113
  store ptr %7, ptr %6, align 8, !tbaa !11
  ret void
}

; Function Attrs: mustprogress nounwind uwtable
define linkonce_odr dso_local noundef nonnull align 8 dereferenceable(128) ptr @_ZN6bParse5bFile14getLibPointersEv(ptr noundef nonnull align 8 dereferenceable(540) %0) #7 comdat align 2 {
  %2 = alloca ptr, align 8
  store ptr %0, ptr %2, align 8, !tbaa !16
  %3 = load ptr, ptr %2, align 8
  %4 = getelementptr inbounds nuw %"class.bParse::bFile", ptr %3, i32 0, i32 6
  ret ptr %4
}

; Function Attrs: mustprogress uwtable
define dso_local noundef ptr @_ZN6bParse5bFile14findLibPointerEPv(ptr noundef nonnull align 8 dereferenceable(540) %0, ptr noundef %1) #0 align 2 {
  %3 = alloca ptr, align 8
  %4 = alloca ptr, align 8
  %5 = alloca ptr, align 8
  %6 = alloca ptr, align 8
  %7 = alloca %class.b3HashPtr, align 8
  %8 = alloca i32, align 4
  store ptr %0, ptr %4, align 8, !tbaa !16
  store ptr %1, ptr %5, align 8, !tbaa !113
  %9 = load ptr, ptr %4, align 8
  call void @llvm.lifetime.start.p0(i64 8, ptr %6) #16
  %10 = call noundef nonnull align 8 dereferenceable(128) ptr @_ZN6bParse5bFile14getLibPointersEv(ptr noundef nonnull align 8 dereferenceable(540) %9)
  call void @llvm.lifetime.start.p0(i64 8, ptr %7) #16
  %11 = load ptr, ptr %5, align 8, !tbaa !113
  call void @_ZN9b3HashPtrC2EPKv(ptr noundef nonnull align 8 dereferenceable(8) %7, ptr noundef %11)
  %12 = call noundef ptr @_ZN9b3HashMapI9b3HashPtrPN6bParse13bStructHandleEE4findERKS0_(ptr noundef nonnull align 8 dereferenceable(128) %10, ptr noundef nonnull align 8 dereferenceable(8) %7)
  call void @llvm.lifetime.end.p0(i64 8, ptr %7) #16
  store ptr %12, ptr %6, align 8, !tbaa !112
  %13 = load ptr, ptr %6, align 8, !tbaa !112
  %14 = icmp ne ptr %13, null
  br i1 %14, label %15, label %18

15:                                               ; preds = %2
  %16 = load ptr, ptr %6, align 8, !tbaa !112
  %17 = load ptr, ptr %16, align 8, !tbaa !106
  store ptr %17, ptr %3, align 8
  store i32 1, ptr %8, align 4
  br label %19

18:                                               ; preds = %2
  store ptr null, ptr %3, align 8
  store i32 1, ptr %8, align 4
  br label %19

19:                                               ; preds = %18, %15
  call void @llvm.lifetime.end.p0(i64 8, ptr %6) #16
  %20 = load ptr, ptr %3, align 8
  ret ptr %20
}

; Function Attrs: inlinehint mustprogress nounwind uwtable
define linkonce_odr dso_local noundef nonnull align 8 dereferenceable(24) ptr @_ZN20b3AlignedObjectArrayIN6bParse9bChunkIndEEixEi(ptr noundef nonnull align 8 dereferenceable(25) %0, i32 noundef %1) #3 comdat align 2 {
  %3 = alloca ptr, align 8
  %4 = alloca i32, align 4
  store ptr %0, ptr %3, align 8, !tbaa !54
  store i32 %1, ptr %4, align 4, !tbaa !9
  %5 = load ptr, ptr %3, align 8
  %6 = getelementptr inbounds nuw %class.b3AlignedObjectArray.6, ptr %5, i32 0, i32 4
  %7 = load ptr, ptr %6, align 8, !tbaa !174
  %8 = load i32, ptr %4, align 4, !tbaa !9
  %9 = sext i32 %8 to i64
  %10 = getelementptr inbounds %"class.bParse::bChunkInd", ptr %7, i64 %9
  ret ptr %10
}

; Function Attrs: inlinehint mustprogress nounwind uwtable
define linkonce_odr dso_local noundef i32 @_ZNK20b3AlignedObjectArrayIN6bParse9bChunkIndEE4sizeEv(ptr noundef nonnull align 8 dereferenceable(25) %0) #3 comdat align 2 {
  %2 = alloca ptr, align 8
  store ptr %0, ptr %2, align 8, !tbaa !54
  %3 = load ptr, ptr %2, align 8
  %4 = getelementptr inbounds nuw %class.b3AlignedObjectArray.6, ptr %3, i32 0, i32 1
  %5 = load i32, ptr %4, align 4, !tbaa !173
  ret i32 %5
}

; Function Attrs: mustprogress uwtable
define dso_local void @_ZN6bParse5bFile17updateOldPointersEv(ptr noundef nonnull align 8 dereferenceable(540) %0) #0 align 2 {
  %2 = alloca ptr, align 8
  %3 = alloca i32, align 4
  %4 = alloca ptr, align 8
  store ptr %0, ptr %2, align 8, !tbaa !16
  %5 = load ptr, ptr %2, align 8
  call void @llvm.lifetime.start.p0(i64 4, ptr %3) #16
  store i32 0, ptr %3, align 4, !tbaa !9
  br label %6

6:                                                ; preds = %21, %1
  %7 = load i32, ptr %3, align 4, !tbaa !9
  %8 = getelementptr inbounds nuw %"class.bParse::bFile", ptr %5, i32 0, i32 13
  %9 = call noundef i32 @_ZNK20b3AlignedObjectArrayIN6bParse9bChunkIndEE4sizeEv(ptr noundef nonnull align 8 dereferenceable(25) %8)
  %10 = icmp slt i32 %7, %9
  br i1 %10, label %11, label %24

11:                                               ; preds = %6
  call void @llvm.lifetime.start.p0(i64 8, ptr %4) #16
  %12 = getelementptr inbounds nuw %"class.bParse::bFile", ptr %5, i32 0, i32 13
  %13 = load i32, ptr %3, align 4, !tbaa !9
  %14 = call noundef nonnull align 8 dereferenceable(24) ptr @_ZN20b3AlignedObjectArrayIN6bParse9bChunkIndEEixEi(ptr noundef nonnull align 8 dereferenceable(25) %12, i32 noundef %13)
  store ptr %14, ptr %4, align 8, !tbaa !66
  %15 = load ptr, ptr %4, align 8, !tbaa !66
  %16 = getelementptr inbounds nuw %"class.bParse::bChunkInd", ptr %15, i32 0, i32 2
  %17 = load ptr, ptr %16, align 8, !tbaa !61
  %18 = call noundef ptr @_ZN6bParse5bFile14findLibPointerEPv(ptr noundef nonnull align 8 dereferenceable(540) %5, ptr noundef %17)
  %19 = load ptr, ptr %4, align 8, !tbaa !66
  %20 = getelementptr inbounds nuw %"class.bParse::bChunkInd", ptr %19, i32 0, i32 2
  store ptr %18, ptr %20, align 8, !tbaa !61
  call void @llvm.lifetime.end.p0(i64 8, ptr %4) #16
  br label %21

21:                                               ; preds = %11
  %22 = load i32, ptr %3, align 4, !tbaa !9
  %23 = add nsw i32 %22, 1
  store i32 %23, ptr %3, align 4, !tbaa !9
  br label %6, !llvm.loop !85

24:                                               ; preds = %6
  call void @llvm.lifetime.end.p0(i64 4, ptr %3) #16
  ret void
}