; Function Attrs: mustprogress nofree norecurse nosync nounwind memory(readwrite, inaccessiblemem: none) uwtable
define dso_local void @_ZN6bParse5bFile17updateOldPointersEv(ptr noundef nonnull readonly align 8 captures(none) dereferenceable(540) %0) local_unnamed_addr #19 align 2 {
  %2 = getelementptr inbounds nuw i8, ptr %0, i64 252
  %3 = load i32, ptr %2, align 4, !tbaa !54
  %4 = icmp sgt i32 %3, 0
  br i1 %4, label %.lr.ph, label %._crit_edge

.lr.ph:                                           ; preds = %1
  %5 = getelementptr inbounds nuw i8, ptr %0, i64 264
  %6 = load ptr, ptr %5, align 8, !tbaa !53
  %7 = getelementptr inbounds nuw i8, ptr %0, i64 104
  %8 = load i32, ptr %7, align 8, !tbaa !42
  %9 = add nsw i32 %8, -1
  %10 = getelementptr inbounds nuw i8, ptr %0, i64 36
  %11 = load i32, ptr %10, align 4, !tbaa !37
  %12 = getelementptr inbounds nuw i8, ptr %0, i64 48
  %13 = load ptr, ptr %12, align 8
  %14 = getelementptr inbounds nuw i8, ptr %0, i64 144
  %15 = load ptr, ptr %14, align 8
  %16 = getelementptr inbounds nuw i8, ptr %0, i64 80
  %17 = getelementptr inbounds nuw i8, ptr %0, i64 112
  %18 = load ptr, ptr %17, align 8
  %.fr = freeze ptr %18
  %.not.i = icmp eq ptr %.fr, null
  %wide.trip.count13 = zext nneg i32 %3 to i64
  br i1 %.not.i, label %.lr.ph.split.us, label %.lr.ph.split

.lr.ph.split.us:                                  ; preds = %.lr.ph, %.lr.ph.split.us
  %indvars.iv10 = phi i64 [ %indvars.iv.next11, %.lr.ph.split.us ], [ 0, %.lr.ph ]
  %19 = getelementptr inbounds nuw %"class.bParse::bChunkInd", ptr %6, i64 %indvars.iv10, i32 2
  store ptr null, ptr %19, align 8, !tbaa !66
  %indvars.iv.next11 = add nuw nsw i64 %indvars.iv10, 1
  %exitcond14.not = icmp eq i64 %indvars.iv.next11, %wide.trip.count13
  br i1 %exitcond14.not, label %._crit_edge, label %.lr.ph.split.us, !llvm.loop !75

.lr.ph.split:                                     ; preds = %.lr.ph, %_ZN6bParse5bFile14findLibPointerEPv.exit
  %indvars.iv = phi i64 [ %indvars.iv.next, %_ZN6bParse5bFile14findLibPointerEPv.exit ], [ 0, %.lr.ph ]
  %20 = getelementptr inbounds nuw %"class.bParse::bChunkInd", ptr %6, i64 %indvars.iv, i32 2
  %21 = load ptr, ptr %20, align 8, !tbaa !66
  %22 = ptrtoint ptr %21 to i64
  %.sroa.0.0.extract.trunc.i = trunc i64 %22 to i32
  %.sroa.0.4.extract.shift.i = lshr i64 %22, 32
  %.sroa.0.4.extract.trunc.i = trunc nuw i64 %.sroa.0.4.extract.shift.i to i32
  %23 = add nsw i32 %.sroa.0.4.extract.trunc.i, %.sroa.0.0.extract.trunc.i
  %24 = shl i32 %23, 15
  %25 = xor i32 %24, -1
  %26 = add nsw i32 %23, %25
  %27 = ashr i32 %26, 10
  %28 = xor i32 %27, %26
  %29 = mul i32 %28, 9
  %30 = ashr i32 %29, 6
  %31 = xor i32 %30, %29
  %32 = shl i32 %31, 11
  %33 = xor i32 %32, -1
  %34 = add nsw i32 %31, %33
  %35 = ashr i32 %34, 16
  %36 = xor i32 %35, %34
  %37 = and i32 %36, %9
  %.not.i.i.i = icmp ult i32 %37, %11
  br i1 %.not.i.i.i, label %38, label %_ZN6bParse5bFile14findLibPointerEPv.exit

38:                                               ; preds = %.lr.ph.split
  %39 = sext i32 %37 to i64
  %40 = getelementptr inbounds i32, ptr %13, i64 %39
  %.012.i.i.i = load i32, ptr %40, align 4, !tbaa !76
  %.not1113.i.i.i = icmp eq i32 %.012.i.i.i, -1
  br i1 %.not1113.i.i.i, label %_ZN6bParse5bFile14findLibPointerEPv.exit, label %.lr.ph.i.i.i

.lr.ph.i.i.i:                                     ; preds = %38
  %41 = load ptr, ptr %16, align 8
  br label %42

42:                                               ; preds = %47, %.lr.ph.i.i.i
  %.014.i.i.i = phi i32 [ %.012.i.i.i, %.lr.ph.i.i.i ], [ %.0.i.i.i, %47 ]
  %43 = sext i32 %.014.i.i.i to i64
  %44 = getelementptr inbounds %class.b3HashPtr, ptr %15, i64 %43
  %45 = load ptr, ptr %44, align 8, !tbaa !4
  %46 = icmp eq ptr %21, %45
  br i1 %46, label %_ZN9b3HashMapI9b3HashPtrPN6bParse13bStructHandleEE4findERKS0_.exit.i, label %47

47:                                               ; preds = %42
  %48 = getelementptr inbounds i32, ptr %41, i64 %43
  %.0.i.i.i = load i32, ptr %48, align 4, !tbaa !76
  %.not11.i.i.i = icmp eq i32 %.0.i.i.i, -1
  br i1 %.not11.i.i.i, label %_ZN6bParse5bFile14findLibPointerEPv.exit, label %42, !llvm.loop !77

_ZN9b3HashMapI9b3HashPtrPN6bParse13bStructHandleEE4findERKS0_.exit.i: ; preds = %42
  %49 = getelementptr inbounds ptr, ptr %.fr, i64 %43
  %50 = load ptr, ptr %49, align 8, !tbaa !78
  br label %_ZN6bParse5bFile14findLibPointerEPv.exit

_ZN6bParse5bFile14findLibPointerEPv.exit:         ; preds = %47, %.lr.ph.split, %38, %_ZN9b3HashMapI9b3HashPtrPN6bParse13bStructHandleEE4findERKS0_.exit.i
  %.0.i = phi ptr [ %50, %_ZN9b3HashMapI9b3HashPtrPN6bParse13bStructHandleEE4findERKS0_.exit.i ], [ null, %.lr.ph.split ], [ null, %38 ], [ null, %47 ]
  store ptr %.0.i, ptr %20, align 8, !tbaa !66
  %indvars.iv.next = add nuw nsw i64 %indvars.iv, 1
  %exitcond.not = icmp eq i64 %indvars.iv.next, %wide.trip.count13
  br i1 %exitcond.not, label %._crit_edge, label %.lr.ph.split, !llvm.loop !75

._crit_edge:                                      ; preds = %_ZN6bParse5bFile14findLibPointerEPv.exit, %.lr.ph.split.us, %1
  ret void
}